target datalayout = "e-m:e-p270:32:32-p271:32:32-p272:64:64-i64:64-i128:128-f80:128-n8:16:32:64-S128"
target triple = "x86_64-pc-linux-gnu"

%class.JfrVirtualMemory = type { ptr, ptr, ptr, ptr, ptr, i64, i64 }

; Function Attrs: mustprogress nounwind uwtable
define hidden noundef ptr @_ZN16JfrVirtualMemory9index_ptrEm(ptr noundef nonnull align 8 dereferenceable(56) %0, i64 noundef %1) #1 align 2 {
  %3 = alloca ptr, align 8
  %4 = alloca i64, align 8
  store ptr %0, ptr %3, align 8
  store i64 %1, ptr %4, align 8
  %5 = load ptr, ptr %3, align 8
  %6 = load i64, ptr %4, align 8
  %7 = getelementptr inbounds %class.JfrVirtualMemory, ptr %5, i32 0, i32 6
  %8 = load i64, ptr %7, align 8
  %9 = mul i64 %6, %8
  %10 = getelementptr inbounds %class.JfrVirtualMemory, ptr %5, i32 0, i32 1
  %11 = load ptr, ptr %10, align 8
  %12 = getelementptr inbounds i8, ptr %11, i64 %9
  ret ptr %12
}

; Function Attrs: mustprogress nounwind uwtable
define hidden noundef zeroext i1 @_ZN16JfrVirtualMemory7compactEm(ptr noundef nonnull align 8 dereferenceable(56) %0, i64 noundef %1) #1 align 2 {
  %3 = alloca ptr, align 8
  %4 = alloca i64, align 8
  %5 = alloca ptr, align 8
  %6 = alloca i64, align 8
  store ptr %0, ptr %3, align 8
  store i64 %1, ptr %4, align 8
  %7 = load ptr, ptr %3, align 8
  %8 = load i64, ptr %4, align 8
  %9 = call noundef ptr @_ZN16JfrVirtualMemory9index_ptrEm(ptr noundef nonnull align 8 dereferenceable(56) %7, i64 noundef %8)
  store ptr %9, ptr %5, align 8
  %10 = getelementptr inbounds %class.JfrVirtualMemory, ptr %7, i32 0, i32 3
  %11 = load ptr, ptr %10, align 8
  %12 = load ptr, ptr %5, align 8
  %13 = ptrtoint ptr %11 to i64
  %14 = ptrtoint ptr %12 to i64
  %15 = sub i64 %13, %14
  store i64 %15, ptr %6, align 8
  %16 = getelementptr inbounds %class.JfrVirtualMemory, ptr %7, i32 0, i32 1
  %17 = load ptr, ptr %16, align 8
  %18 = load ptr, ptr %5, align 8
  %19 = load i64, ptr %6, align 8
  call void @llvm.memcpy.p0.p0.i64(ptr align 1 %17, ptr align 1 %18, i64 %19, i1 false)
  %20 = getelementptr inbounds %class.JfrVirtualMemory, ptr %7, i32 0, i32 1
  %21 = load ptr, ptr %20, align 8
  %22 = load i64, ptr %6, align 8
  %23 = getelementptr inbounds i8, ptr %21, i64 %22
  %24 = getelementptr inbounds %class.JfrVirtualMemory, ptr %7, i32 0, i32 3
  store ptr %23, ptr %24, align 8
  ret i1 true
}