; Function Attrs: mustprogress nofree norecurse nosync nounwind willreturn memory(readwrite, inaccessiblemem: none) uwtable
define hidden noundef zeroext i1 @_ZN16JfrVirtualMemory7compactEm(ptr nocapture noundef nonnull align 8 dereferenceable(56) %0, i64 noundef %1) local_unnamed_addr #7 align 2 {
  %3 = getelementptr inbounds i8, ptr %0, i64 48
  %4 = load i64, ptr %3, align 8
  %5 = mul i64 %4, %1
  %6 = getelementptr inbounds i8, ptr %0, i64 8
  %7 = load ptr, ptr %6, align 8
  %8 = getelementptr inbounds i8, ptr %7, i64 %5
  %9 = getelementptr inbounds i8, ptr %0, i64 24
  %10 = load ptr, ptr %9, align 8
  %11 = ptrtoint ptr %10 to i64
  %12 = ptrtoint ptr %8 to i64
  %13 = sub i64 %11, %12
  tail call void @llvm.memcpy.p0.p0.i64(ptr align 1 %7, ptr align 1 %8, i64 %13, i1 false)
  %14 = load ptr, ptr %6, align 8
  %15 = getelementptr inbounds i8, ptr %14, i64 %13
  store ptr %15, ptr %9, align 8
  ret i1 true
}